target datalayout = "e-m:e-p270:32:32-p271:32:32-p272:64:64-i64:64-i128:128-f80:128-n8:16:32:64-S128"
target triple = "x86_64-pc-linux-gnu"

%struct.tr2tls_thread_ctx = type { ptr, ptr, i64, i64, i32, %struct.tr2_timer_block, %struct.tr2_counter_block, i8 }
%struct.tr2_timer_block = type { [2 x %struct.tr2_timer] }
%struct.tr2_timer = type { i64, i64, i64, i64, i64, i32 }
%struct.tr2_counter_block = type { [6 x %struct.tr2_counter] }
%struct.tr2_counter = type { i64 }

@tr2tls_key = internal global i32 0, align 4
@.str.1 = private unnamed_addr constant [8 x i8] c"unknown\00", align 1
@.str.2 = private unnamed_addr constant [17 x i8] c"trace2/tr2_tls.c\00", align 1
@.str.3 = private unnamed_addr constant [31 x i8] c"no open regions in thread '%s'\00", align 1

; Function Attrs: nounwind uwtable
define dso_local void @tr2tls_pop_self() #0 {
  %1 = alloca ptr, align 8
  call void @llvm.lifetime.start.p0(i64 8, ptr %1) #8
  %2 = call ptr @tr2tls_get_self()
  store ptr %2, ptr %1, align 8, !tbaa !11
  %3 = load ptr, ptr %1, align 8, !tbaa !11
  %4 = getelementptr inbounds nuw %struct.tr2tls_thread_ctx, ptr %3, i32 0, i32 3
  %5 = load i64, ptr %4, align 8, !tbaa !20
  %6 = icmp ne i64 %5, 0
  br i1 %6, label %11, label %7

7:                                                ; preds = %0
  %8 = load ptr, ptr %1, align 8, !tbaa !11
  %9 = getelementptr inbounds nuw %struct.tr2tls_thread_ctx, ptr %8, i32 0, i32 0
  %10 = load ptr, ptr %9, align 8, !tbaa !24
  call void (ptr, i32, ptr, ...) @BUG_fl(ptr noundef @.str.2, i32 noundef 120, ptr noundef @.str.3, ptr noundef %10) #10
  unreachable

11:                                               ; preds = %0
  %12 = load ptr, ptr %1, align 8, !tbaa !11
  %13 = getelementptr inbounds nuw %struct.tr2tls_thread_ctx, ptr %12, i32 0, i32 3
  %14 = load i64, ptr %13, align 8, !tbaa !20
  %15 = add i64 %14, -1
  store i64 %15, ptr %13, align 8, !tbaa !20
  call void @llvm.lifetime.end.p0(i64 8, ptr %1) #8
  ret void
}

; Function Attrs: nounwind uwtable
define dso_local ptr @tr2tls_get_self() #0 {
  %1 = alloca ptr, align 8
  call void @llvm.lifetime.start.p0(i64 8, ptr %1) #8
  %2 = load i32, ptr @tr2tls_key, align 4, !tbaa !25
  %3 = call ptr @pthread_getspecific(i32 noundef %2) #8
  store ptr %3, ptr %1, align 8, !tbaa !11
  %4 = load ptr, ptr %1, align 8, !tbaa !11
  %5 = icmp ne ptr %4, null
  br i1 %5, label %10, label %6

6:                                                ; preds = %0
  %7 = call i64 @getnanotime()
  %8 = udiv i64 %7, 1000
  %9 = call ptr @tr2tls_create_self(ptr noundef @.str.1, i64 noundef %8)
  store ptr %9, ptr %1, align 8, !tbaa !11
  br label %10

10:                                               ; preds = %6, %0
  %11 = load ptr, ptr %1, align 8, !tbaa !11
  call void @llvm.lifetime.end.p0(i64 8, ptr %1) #8
  ret ptr %11
}

; Function Attrs: nounwind uwtable
define dso_local void @tr2tls_pop_unwind_self() #0 {
  %1 = alloca ptr, align 8
  call void @llvm.lifetime.start.p0(i64 8, ptr %1) #8
  %2 = call ptr @tr2tls_get_self()
  store ptr %2, ptr %1, align 8, !tbaa !11
  br label %3

3:                                                ; preds = %8, %0
  %4 = load ptr, ptr %1, align 8, !tbaa !11
  %5 = getelementptr inbounds nuw %struct.tr2tls_thread_ctx, ptr %4, i32 0, i32 3
  %6 = load i64, ptr %5, align 8, !tbaa !20
  %7 = icmp ugt i64 %6, 1
  br i1 %7, label %8, label %9

8:                                                ; preds = %3
  call void @tr2tls_pop_self()
  br label %3, !llvm.loop !33

9:                                                ; preds = %3
  call void @llvm.lifetime.end.p0(i64 8, ptr %1) #8
  ret void
}