; Function Attrs: nounwind uwtable
define dso_local void @tr2tls_pop_unwind_self() local_unnamed_addr #0 {
  %1 = load i32, ptr @tr2tls_key, align 4, !tbaa !18
  %2 = tail call ptr @pthread_getspecific(i32 noundef %1) #11
  %.not.i = icmp eq ptr %2, null
  br i1 %.not.i, label %3, label %tr2tls_get_self.exit

3:                                                ; preds = %0
  %4 = tail call i64 @getnanotime() #11
  %5 = udiv i64 %4, 1000
  %6 = tail call ptr @tr2tls_create_self(ptr noundef nonnull @.str.1, i64 noundef %5)
  br label %tr2tls_get_self.exit

tr2tls_get_self.exit:                             ; preds = %0, %3
  %.0.i = phi ptr [ %2, %0 ], [ %6, %3 ]
  %7 = getelementptr inbounds nuw i8, ptr %.0.i, i64 24
  %8 = load i64, ptr %7, align 8, !tbaa !17
  %9 = icmp ugt i64 %8, 1
  br i1 %9, label %.lr.ph, label %._crit_edge

.lr.ph:                                           ; preds = %tr2tls_get_self.exit, %tr2tls_pop_self.exit
  %10 = load i32, ptr @tr2tls_key, align 4, !tbaa !18
  %11 = tail call ptr @pthread_getspecific(i32 noundef %10) #11
  %.not.i.i = icmp eq ptr %11, null
  br i1 %.not.i.i, label %12, label %tr2tls_get_self.exit.i

12:                                               ; preds = %.lr.ph
  %13 = tail call i64 @getnanotime() #11
  %14 = udiv i64 %13, 1000
  %15 = tail call ptr @tr2tls_create_self(ptr noundef nonnull @.str.1, i64 noundef %14)
  br label %tr2tls_get_self.exit.i

tr2tls_get_self.exit.i:                           ; preds = %12, %.lr.ph
  %.0.i.i = phi ptr [ %11, %.lr.ph ], [ %15, %12 ]
  %16 = getelementptr inbounds nuw i8, ptr %.0.i.i, i64 24
  %17 = load i64, ptr %16, align 8, !tbaa !17
  %.not.i1 = icmp eq i64 %17, 0
  br i1 %.not.i1, label %18, label %tr2tls_pop_self.exit

18:                                               ; preds = %tr2tls_get_self.exit.i
  %19 = load ptr, ptr %.0.i.i, align 8, !tbaa !25
  tail call void (ptr, i32, ptr, ...) @BUG_fl(ptr noundef nonnull @.str.2, i32 noundef 120, ptr noundef nonnull @.str.3, ptr noundef %19) #13
  unreachable

tr2tls_pop_self.exit:                             ; preds = %tr2tls_get_self.exit.i
  %20 = add i64 %17, -1
  store i64 %20, ptr %16, align 8, !tbaa !17
  %21 = load i64, ptr %7, align 8, !tbaa !17
  %22 = icmp ugt i64 %21, 1
  br i1 %22, label %.lr.ph, label %._crit_edge, !llvm.loop !28

._crit_edge:                                      ; preds = %tr2tls_pop_self.exit, %tr2tls_get_self.exit
  ret void
}